; Function Attrs: nofree norecurse nosync nounwind memory(write, argmem: readwrite, inaccessiblemem: none) uwtable
define dso_local void @lwDrawLine(ptr noundef readonly captures(none) %0, i32 noundef %1, i32 noundef %2, i32 noundef %3, i32 noundef %4, i32 noundef %5) local_unnamed_addr #9 {
  %7 = sub nsw i32 %3, %1
  %8 = tail call i32 @llvm.abs.i32(i32 %7, i1 true)
  %9 = sub nsw i32 %4, %2
  %10 = tail call i32 @llvm.abs.i32(i32 %9, i1 true)
  %11 = icmp slt i32 %1, %3
  %12 = select i1 %11, i32 1, i32 -1
  %13 = icmp slt i32 %2, %4
  %14 = select i1 %13, i32 1, i32 -1
  %15 = sub nsw i32 %8, %10
  %16 = getelementptr inbounds nuw i8, ptr %0, i64 4
  %17 = trunc i32 %5 to i8
  %18 = getelementptr inbounds nuw i8, ptr %0, i64 8
  %19 = sub nsw i32 0, %10
  br label %20

20:                                               ; preds = %36, %6
  %.032 = phi i32 [ %2, %6 ], [ %.133, %36 ]
  %.030 = phi i32 [ %15, %6 ], [ %.2, %36 ]
  %.0 = phi i32 [ %1, %6 ], [ %.1, %36 ]
  %21 = icmp slt i32 %.0, 0
  br i1 %21, label %lwDrawPixel.exit, label %22

22:                                               ; preds = %20
  %23 = load i32, ptr %0, align 8, !tbaa !37
  %24 = icmp sge i32 %.0, %23
  %25 = icmp slt i32 %.032, 0
  %or.cond.i = or i1 %25, %24
  br i1 %or.cond.i, label %lwDrawPixel.exit, label %26

26:                                               ; preds = %22
  %27 = load i32, ptr %16, align 4, !tbaa !39
  %.not.i = icmp slt i32 %.032, %27
  br i1 %.not.i, label %28, label %lwDrawPixel.exit

28:                                               ; preds = %26
  %29 = load ptr, ptr %18, align 8, !tbaa !40
  %30 = mul nsw i32 %23, %.032
  %31 = add nuw nsw i32 %30, %.0
  %32 = zext nneg i32 %31 to i64
  %33 = getelementptr inbounds nuw i8, ptr %29, i64 %32
  store i8 %17, ptr %33, align 1, !tbaa !5
  br label %lwDrawPixel.exit

lwDrawPixel.exit:                                 ; preds = %20, %22, %26, %28
  %34 = icmp eq i32 %.0, %3
  %35 = icmp eq i32 %.032, %4
  %or.cond = and i1 %35, %34
  br i1 %or.cond, label %44, label %36

36:                                               ; preds = %lwDrawPixel.exit
  %37 = shl nsw i32 %.030, 1
  %38 = icmp sgt i32 %37, %19
  %39 = select i1 %38, i32 %10, i32 0
  %.131 = sub i32 %.030, %39
  %40 = select i1 %38, i32 %12, i32 0
  %.1 = add nsw i32 %40, %.0
  %41 = icmp slt i32 %37, %8
  %42 = select i1 %41, i32 %14, i32 0
  %.133 = add nsw i32 %42, %.032
  %43 = select i1 %41, i32 %8, i32 0
  %.2 = add nsw i32 %.131, %43
  br label %20

44:                                               ; preds = %lwDrawPixel.exit
  ret void
}